; ModuleID = '56/1210.c'
source_filename = "56/1210.c"
target datalayout = "e-m:e-p270:32:32-p271:32:32-p272:64:64-i64:64-f80:128-n8:16:32:64-S128"
target triple = "x86_64-pc-linux-gnu"

@.str = private unnamed_addr constant [3 x i8] c"%d\00", align 1

; Function Attrs: noinline nounwind uwtable
define dso_local i32 @main() #0 {
  %1 = alloca i32, align 4
  %2 = alloca i32, align 4
  %3 = alloca i32, align 4
  %4 = alloca i32, align 4
  %5 = alloca i32, align 4
  %6 = alloca i32, align 4
  %7 = alloca i32, align 4
  %8 = alloca i32, align 4
  %9 = alloca i32, align 4
  store i32 0, i32* %1, align 4
  %10 = call i32 (i8*, ...) @__isoc99_scanf(i8* getelementptr inbounds ([3 x i8], [3 x i8]* @.str, i64 0, i64 0), i32* %8)
  %11 = load i32, i32* %8, align 4
  %12 = sdiv i32 %11, 10000
  store i32 %12, i32* %2, align 4
  %13 = load i32, i32* %8, align 4
  %14 = load i32, i32* %2, align 4
  %15 = mul nsw i32 10000, %14
  %16 = sub nsw i32 %13, %15
  %17 = sdiv i32 %16, 1000
  store i32 %17, i32* %4, align 4
  %18 = load i32, i32* %8, align 4
  %19 = load i32, i32* %2, align 4
  %20 = mul nsw i32 10000, %19
  %21 = sub nsw i32 %18, %20
  %22 = load i32, i32* %4, align 4
  %23 = mul nsw i32 1000, %22
  %24 = sub nsw i32 %21, %23
  %25 = sdiv i32 %24, 100
  store i32 %25, i32* %5, align 4
  %26 = load i32, i32* %8, align 4
  %27 = srem i32 %26, 10
  store i32 %27, i32* %7, align 4
  %28 = load i32, i32* %8, align 4
  %29 = srem i32 %28, 100
  %30 = load i32, i32* %7, align 4
  %31 = sub nsw i32 %29, %30
  %32 = sdiv i32 %31, 10
  store i32 %32, i32* %6, align 4
  %33 = load i32, i32* %7, align 4
  %34 = mul nsw i32 %33, 10000
  %35 = load i32, i32* %6, align 4
  %36 = mul nsw i32 %35, 1000
  %37 = add nsw i32 %34, %36
  %38 = load i32, i32* %5, align 4
  %39 = mul nsw i32 100, %38
  %40 = add nsw i32 %37, %39
  %41 = load i32, i32* %4, align 4
  %42 = mul nsw i32 10, %41
  %43 = add nsw i32 %40, %42
  %44 = load i32, i32* %2, align 4
  %45 = add nsw i32 %43, %44
  store i32 %45, i32* %9, align 4
  store i32 0, i32* %3, align 4
  br label %46

46:                                               ; preds = %57, %0
  %47 = load i32, i32* %3, align 4
  %48 = icmp sle i32 %47, 4
  br i1 %48, label %49, label %60

49:                                               ; preds = %46
  %50 = load i32, i32* %9, align 4
  %51 = srem i32 %50, 10
  %52 = icmp eq i32 %51, 0
  br i1 %52, label %53, label %56

53:                                               ; preds = %49
  %54 = load i32, i32* %9, align 4
  %55 = sdiv i32 %54, 10
  store i32 %55, i32* %9, align 4
  br label %56

56:                                               ; preds = %53, %49
  br label %57

57:                                               ; preds = %56
  %58 = load i32, i32* %3, align 4
  %59 = add nsw i32 %58, 1
  store i32 %59, i32* %3, align 4
  br label %46

60:                                               ; preds = %46
  %61 = load i32, i32* %9, align 4
  %62 = call i32 (i8*, ...) @printf(i8* getelementptr inbounds ([3 x i8], [3 x i8]* @.str, i64 0, i64 0), i32 %61)
  ret i32 0
}

declare dso_local i32 @__isoc99_scanf(i8*, ...) #1

declare dso_local i32 @printf(i8*, ...) #1


!llvm.module.flags = !{!0}
!llvm.ident = !{!1}

!0 = !{i32 1, !"wchar_size", i32 4}
!1 = !{!"clang version 10.0.0-4ubuntu1 "}
