; ModuleID = 'source-C-CXX/55/1210.c'
source_filename = "source-C-CXX/55/1210.c"
target datalayout = "e-m:e-p270:32:32-p271:32:32-p272:64:64-i64:64-f80:128-n8:16:32:64-S128"
target triple = "x86_64-pc-linux-gnu"

@.str = private unnamed_addr constant [3 x i8] c"%d\00", align 1

; Function Attrs: nofree nounwind sspstrong uwtable
define dso_local i32 @main() local_unnamed_addr #0 {
  %1 = alloca i32, align 4
  %2 = bitcast i32* %1 to i8*
  call void @llvm.lifetime.start.p0i8(i64 4, i8* nonnull %2) #3
  %3 = call i32 (i8*, ...) @__isoc99_scanf(i8* getelementptr inbounds ([3 x i8], [3 x i8]* @.str, i64 0, i64 0), i32* nonnull %1)
  %4 = load i32, i32* %1, align 4, !tbaa !5
  %5 = sdiv i32 %4, 10000
  %6 = mul nsw i32 %5, -10000
  %7 = add i32 %6, %4
  %8 = sdiv i32 %7, 1000
  %9 = mul nsw i32 %8, -1000
  %10 = add i32 %9, %7
  %11 = srem i32 %4, 10
  %12 = srem i32 %4, 100
  %13 = sub nsw i32 %12, %11
  %14 = trunc i32 %13 to i8
  %15 = sdiv i8 %14, 10
  %16 = sext i8 %15 to i32
  %17 = mul nsw i32 %11, 10000
  %18 = mul nsw i32 %16, 1000
  %19 = srem i32 %10, 100
  %20 = mul nsw i32 %8, 10
  %21 = add nsw i32 %17, %5
  %22 = add nsw i32 %21, %20
  %23 = add nsw i32 %22, %18
  %24 = add i32 %23, %10
  %25 = sub i32 %24, %19
  %26 = srem i32 %25, 10
  %27 = icmp eq i32 %26, 0
  %28 = sdiv i32 %25, 10
  %29 = select i1 %27, i32 %28, i32 %25
  %30 = srem i32 %29, 10
  %31 = icmp eq i32 %30, 0
  %32 = sdiv i32 %29, 10
  %33 = select i1 %31, i32 %32, i32 %29
  %34 = srem i32 %33, 10
  %35 = icmp eq i32 %34, 0
  %36 = sdiv i32 %33, 10
  %37 = select i1 %35, i32 %36, i32 %33
  %38 = srem i32 %37, 10
  %39 = icmp eq i32 %38, 0
  %40 = sdiv i32 %37, 10
  %41 = select i1 %39, i32 %40, i32 %37
  %42 = srem i32 %41, 10
  %43 = icmp eq i32 %42, 0
  %44 = sdiv i32 %41, 10
  %45 = select i1 %43, i32 %44, i32 %41
  %46 = call i32 (i8*, ...) @printf(i8* nonnull dereferenceable(1) getelementptr inbounds ([3 x i8], [3 x i8]* @.str, i64 0, i64 0), i32 %45)
  call void @llvm.lifetime.end.p0i8(i64 4, i8* nonnull %2) #3
  ret i32 0
}

; Function Attrs: argmemonly mustprogress nofree nosync nounwind willreturn
declare void @llvm.lifetime.start.p0i8(i64 immarg, i8* nocapture) #1

; Function Attrs: nofree nounwind
declare noundef i32 @__isoc99_scanf(i8* nocapture noundef readonly, ...) local_unnamed_addr #2

; Function Attrs: nofree nounwind
declare noundef i32 @printf(i8* nocapture noundef readonly, ...) local_unnamed_addr #2

; Function Attrs: argmemonly mustprogress nofree nosync nounwind willreturn
declare void @llvm.lifetime.end.p0i8(i64 immarg, i8* nocapture) #1


!llvm.module.flags = !{!0, !1, !2, !3}
!llvm.ident = !{!4}

!0 = !{i32 1, !"wchar_size", i32 4}
!1 = !{i32 7, !"PIC Level", i32 2}
!2 = !{i32 7, !"PIE Level", i32 2}
!3 = !{i32 7, !"uwtable", i32 1}
!4 = !{!"clang version 13.0.0"}
!5 = !{!6, !6, i64 0}
!6 = !{!"int", !7, i64 0}
!7 = !{!"omnipotent char", !8, i64 0}
!8 = !{!"Simple C/C++ TBAA"}
